target datalayout = "e-m:e-p270:32:32-p271:32:32-p272:64:64-i64:64-i128:128-f80:128-n8:16:32:64-S128"
target triple = "x86_64-pc-linux-gnu"

%struct._object = type { %union.anon, ptr }
%union.anon = type { i64 }
%struct.PyVarObject = type { %struct._object, i64 }
%struct.arraydescr = type { i8, i32, ptr, ptr, ptr, ptr, i32, i32 }
%struct.arrayobject = type { %struct.PyVarObject, ptr, i64, ptr, ptr, i64 }

@PyExc_ValueError = external global ptr, align 8
@.str.75 = private unnamed_addr constant [67 x i8] c"tounicode() may only be called on unicode type arrays ('u' or 'w')\00", align 1

; Function Attrs: inlinehint nounwind uwtable
define internal i64 @Py_SIZE(ptr noundef %0) #3 {
  %2 = alloca ptr, align 8
  store ptr %0, ptr %2, align 8, !tbaa !3
  %3 = load ptr, ptr %2, align 8, !tbaa !3
  %4 = getelementptr inbounds nuw %struct.PyVarObject, ptr %3, i32 0, i32 1
  %5 = load i64, ptr %4, align 8, !tbaa !62
  ret i64 %5
}

; Function Attrs: nounwind uwtable
define internal ptr @array_array_tounicode_impl(ptr noundef %0) #0 {
  %2 = alloca ptr, align 8
  %3 = alloca ptr, align 8
  %4 = alloca i32, align 4
  %5 = alloca i32, align 4
  %6 = alloca i32, align 4
  store ptr %0, ptr %3, align 8, !tbaa !68
  call void @llvm.lifetime.start.p0(i64 4, ptr %4) #8
  %7 = load ptr, ptr %3, align 8, !tbaa !68
  %8 = getelementptr inbounds nuw %struct.arrayobject, ptr %7, i32 0, i32 3
  %9 = load ptr, ptr %8, align 8, !tbaa !99
  %10 = getelementptr inbounds nuw %struct.arraydescr, ptr %9, i32 0, i32 0
  %11 = load i8, ptr %10, align 8, !tbaa !41
  %12 = sext i8 %11 to i32
  store i32 %12, ptr %4, align 4, !tbaa !12
  %13 = load i32, ptr %4, align 4, !tbaa !12
  %14 = icmp ne i32 %13, 117
  br i1 %14, label %15, label %20

15:                                               ; preds = %1
  %16 = load i32, ptr %4, align 4, !tbaa !12
  %17 = icmp ne i32 %16, 119
  br i1 %17, label %18, label %20

18:                                               ; preds = %15
  %19 = load ptr, ptr @PyExc_ValueError, align 8, !tbaa !3
  call void @PyErr_SetString(ptr noundef %19, ptr noundef @.str.75)
  store ptr null, ptr %2, align 8
  store i32 1, ptr %5, align 4
  br label %38

20:                                               ; preds = %15, %1
  %21 = load i32, ptr %4, align 4, !tbaa !12
  %22 = icmp eq i32 %21, 117
  br i1 %22, label %23, label %30

23:                                               ; preds = %20
  %24 = load ptr, ptr %3, align 8, !tbaa !68
  %25 = getelementptr inbounds nuw %struct.arrayobject, ptr %24, i32 0, i32 1
  %26 = load ptr, ptr %25, align 8, !tbaa !70
  %27 = load ptr, ptr %3, align 8, !tbaa !68
  %28 = call i64 @Py_SIZE(ptr noundef %27)
  %29 = call ptr @PyUnicode_FromWideChar(ptr noundef %26, i64 noundef %28)
  store ptr %29, ptr %2, align 8
  store i32 1, ptr %5, align 4
  br label %38

30:                                               ; preds = %20
  call void @llvm.lifetime.start.p0(i64 4, ptr %6) #8
  store i32 0, ptr %6, align 4, !tbaa !12
  %31 = load ptr, ptr %3, align 8, !tbaa !68
  %32 = getelementptr inbounds nuw %struct.arrayobject, ptr %31, i32 0, i32 1
  %33 = load ptr, ptr %32, align 8, !tbaa !70
  %34 = load ptr, ptr %3, align 8, !tbaa !68
  %35 = call i64 @Py_SIZE(ptr noundef %34)
  %36 = mul i64 %35, 4
  %37 = call ptr @PyUnicode_DecodeUTF32(ptr noundef %33, i64 noundef %36, ptr noundef null, ptr noundef %6)
  store ptr %37, ptr %2, align 8
  store i32 1, ptr %5, align 4
  call void @llvm.lifetime.end.p0(i64 4, ptr %6) #8
  br label %38

38:                                               ; preds = %30, %23, %18
  call void @llvm.lifetime.end.p0(i64 4, ptr %4) #8
  %39 = load ptr, ptr %2, align 8
  ret ptr %39
}

; Function Attrs: nounwind uwtable
define internal ptr @array_array_tounicode(ptr noundef %0, ptr noundef %1) #0 {
  %3 = alloca ptr, align 8
  %4 = alloca ptr, align 8
  store ptr %0, ptr %3, align 8, !tbaa !3
  store ptr %1, ptr %4, align 8, !tbaa !3
  %5 = load ptr, ptr %3, align 8, !tbaa !3
  %6 = call ptr @array_array_tounicode_impl(ptr noundef %5)
  ret ptr %6
}