; Function Attrs: nounwind uwtable
define internal ptr @array_array_tounicode(ptr noundef readonly captures(none) %0, ptr readnone captures(none) %1) #0 {
  %3 = alloca i32, align 4
  %4 = getelementptr inbounds nuw i8, ptr %0, i64 40
  %5 = load ptr, ptr %4, align 8, !tbaa !76
  %6 = load i8, ptr %5, align 8, !tbaa !36
  %7 = and i8 %6, -3
  %or.cond.not.i = icmp eq i8 %7, 117
  br i1 %or.cond.not.i, label %10, label %8

8:                                                ; preds = %2
  %9 = load ptr, ptr @PyExc_ValueError, align 8, !tbaa !18
  tail call void @PyErr_SetString(ptr noundef %9, ptr noundef nonnull @.str.75) #11
  br label %array_array_tounicode_impl.exit

10:                                               ; preds = %2
  %11 = icmp eq i8 %6, 117
  br i1 %11, label %12, label %17

12:                                               ; preds = %10
  %13 = getelementptr inbounds nuw i8, ptr %0, i64 24
  %14 = load ptr, ptr %13, align 8, !tbaa !53
  %15 = getelementptr i8, ptr %0, i64 16
  %.val9.i = load i64, ptr %15, align 8, !tbaa !40
  %16 = tail call ptr @PyUnicode_FromWideChar(ptr noundef %14, i64 noundef %.val9.i) #11
  br label %array_array_tounicode_impl.exit

17:                                               ; preds = %10
  call void @llvm.lifetime.start.p0(i64 4, ptr nonnull %3) #11
  store i32 0, ptr %3, align 4, !tbaa !34
  %18 = getelementptr inbounds nuw i8, ptr %0, i64 24
  %19 = load ptr, ptr %18, align 8, !tbaa !53
  %20 = getelementptr i8, ptr %0, i64 16
  %.val.i = load i64, ptr %20, align 8, !tbaa !40
  %21 = shl i64 %.val.i, 2
  %22 = call ptr @PyUnicode_DecodeUTF32(ptr noundef %19, i64 noundef %21, ptr noundef null, ptr noundef nonnull %3) #11
  call void @llvm.lifetime.end.p0(i64 4, ptr nonnull %3) #11
  br label %array_array_tounicode_impl.exit

array_array_tounicode_impl.exit:                  ; preds = %8, %12, %17
  %.0.i = phi ptr [ null, %8 ], [ %16, %12 ], [ %22, %17 ]
  ret ptr %.0.i
}